target datalayout = "e-m:e-p270:32:32-p271:32:32-p272:64:64-i64:64-i128:128-f80:128-n8:16:32:64-S128"
target triple = "x86_64-pc-linux-gnu"

%struct._object = type { %union.anon, ptr }
%union.anon = type { i64 }
%struct.seqiterobject = type { %struct._object, i64, ptr }

@_Py_NoneStruct = external global %struct._object, align 8

; Function Attrs: nounwind uwtable
define internal ptr @iter_setstate(ptr noundef %0, ptr noundef %1) #0 {
  %3 = alloca ptr, align 8
  %4 = alloca ptr, align 8
  %5 = alloca ptr, align 8
  %6 = alloca i64, align 8
  %7 = alloca i32, align 4
  store ptr %0, ptr %4, align 8, !tbaa !9
  store ptr %1, ptr %5, align 8, !tbaa !4
  call void @llvm.lifetime.start.p0(i64 8, ptr %6) #7
  %8 = load ptr, ptr %5, align 8, !tbaa !4
  %9 = call i64 @PyLong_AsSsize_t(ptr noundef %8)
  store i64 %9, ptr %6, align 8, !tbaa !98
  %10 = load i64, ptr %6, align 8, !tbaa !98
  %11 = icmp eq i64 %10, -1
  br i1 %11, label %12, label %16

12:                                               ; preds = %2
  %13 = call ptr @PyErr_Occurred()
  %14 = icmp ne ptr %13, null
  br i1 %14, label %15, label %16

15:                                               ; preds = %12
  store ptr null, ptr %3, align 8
  store i32 1, ptr %7, align 4
  br label %30

16:                                               ; preds = %12, %2
  %17 = load ptr, ptr %4, align 8, !tbaa !9
  %18 = getelementptr inbounds nuw %struct.seqiterobject, ptr %17, i32 0, i32 2
  %19 = load ptr, ptr %18, align 8, !tbaa !15
  %20 = icmp ne ptr %19, null
  br i1 %20, label %21, label %29

21:                                               ; preds = %16
  %22 = load i64, ptr %6, align 8, !tbaa !98
  %23 = icmp slt i64 %22, 0
  br i1 %23, label %24, label %25

24:                                               ; preds = %21
  store i64 0, ptr %6, align 8, !tbaa !98
  br label %25

25:                                               ; preds = %24, %21
  %26 = load i64, ptr %6, align 8, !tbaa !98
  %27 = load ptr, ptr %4, align 8, !tbaa !9
  %28 = getelementptr inbounds nuw %struct.seqiterobject, ptr %27, i32 0, i32 1
  store i64 %26, ptr %28, align 8, !tbaa !10
  br label %29

29:                                               ; preds = %25, %16
  store ptr @_Py_NoneStruct, ptr %3, align 8
  store i32 1, ptr %7, align 4
  br label %30

30:                                               ; preds = %29, %15
  call void @llvm.lifetime.end.p0(i64 8, ptr %6) #7
  %31 = load ptr, ptr %3, align 8
  ret ptr %31
}