; Function Attrs: nounwind uwtable
define internal noundef ptr @iter_setstate(ptr noundef captures(none) %0, ptr noundef %1) #0 {
  %3 = tail call i64 @PyLong_AsSsize_t(ptr noundef %1) #4
  %4 = icmp eq i64 %3, -1
  br i1 %4, label %5, label %7

5:                                                ; preds = %2
  %6 = tail call ptr @PyErr_Occurred() #4
  %.not = icmp eq ptr %6, null
  br i1 %.not, label %7, label %12

7:                                                ; preds = %5, %2
  %8 = getelementptr inbounds nuw i8, ptr %0, i64 24
  %9 = load ptr, ptr %8, align 8, !tbaa !14
  %.not6 = icmp eq ptr %9, null
  br i1 %.not6, label %12, label %10

10:                                               ; preds = %7
  %spec.store.select = tail call i64 @llvm.smax.i64(i64 %3, i64 0)
  %11 = getelementptr inbounds nuw i8, ptr %0, i64 16
  store i64 %spec.store.select, ptr %11, align 8, !tbaa !4
  br label %12

12:                                               ; preds = %7, %10, %5
  %.0 = phi ptr [ null, %5 ], [ @_Py_NoneStruct, %10 ], [ @_Py_NoneStruct, %7 ]
  ret ptr %.0
}